target datalayout = "e-m:e-p270:32:32-p271:32:32-p272:64:64-i64:64-i128:128-f80:128-n8:16:32:64-S128"
target triple = "x86_64-pc-linux-gnu"

%struct.mbedtls_ssl_context = type { ptr, i32, i32, i32, i32, i32, ptr, ptr, ptr, ptr, ptr, ptr, ptr, ptr, ptr, ptr, ptr, ptr, ptr, ptr, ptr, ptr, ptr, ptr, ptr, ptr, ptr, ptr, ptr, ptr, ptr, ptr, ptr, i32, i64, i64, i16, i64, i64, i64, i64, i32, i32, i8, i8, i32, i8, ptr, ptr, ptr, ptr, ptr, ptr, ptr, i32, i64, i64, [8 x i8], i16, ptr, ptr, ptr, i64, i32, i64, [12 x i8], [12 x i8], [32 x i8], i8, i8, ptr, ptr, %union.mbedtls_ssl_user_data_t }
%union.mbedtls_ssl_user_data_t = type { i64 }

@.str = private unnamed_addr constant [131 x i8] c"generated/home/dtcxzyw/WorkSpace/Projects/compilers/llvm-opt-benchmark/bench/lief/bench_build/mbed_src/library/ssl_tls13_generic.c\00", align 1
@.str.2 = private unnamed_addr constant [24 x i8] c"mbedtls_ssl_read_record\00", align 1
@.str.3 = private unnamed_addr constant [38 x i8] c"Receive unexpected handshake message.\00", align 1

; Function Attrs: nounwind uwtable
define hidden i32 @mbedtls_ssl_tls13_fetch_handshake_msg(ptr noundef %0, i32 noundef %1, ptr noundef %2, ptr noundef %3) #0 {
  %5 = alloca ptr, align 8
  %6 = alloca i32, align 4
  %7 = alloca ptr, align 8
  %8 = alloca ptr, align 8
  %9 = alloca i32, align 4
  store ptr %0, ptr %5, align 8, !tbaa !3
  store i32 %1, ptr %6, align 4, !tbaa !8
  store ptr %2, ptr %7, align 8, !tbaa !10
  store ptr %3, ptr %8, align 8, !tbaa !13
  call void @llvm.lifetime.start.p0(i64 4, ptr %9) #10
  %10 = load ptr, ptr %5, align 8, !tbaa !3
  %11 = call i32 @mbedtls_ssl_read_record(ptr noundef %10, i32 noundef 0)
  store i32 %11, ptr %9, align 4, !tbaa !8
  %12 = icmp ne i32 %11, 0
  br i1 %12, label %13, label %16

13:                                               ; preds = %4
  %14 = load ptr, ptr %5, align 8, !tbaa !3
  %15 = load i32, ptr %9, align 4, !tbaa !8
  call void @mbedtls_debug_print_ret(ptr noundef %14, i32 noundef 1, ptr noundef @.str, i32 noundef 65, ptr noundef @.str.2, i32 noundef %15)
  br label %44

16:                                               ; preds = %4
  %17 = load ptr, ptr %5, align 8, !tbaa !3
  %18 = getelementptr inbounds nuw %struct.mbedtls_ssl_context, ptr %17, i32 0, i32 33
  %19 = load i32, ptr %18, align 8, !tbaa !15
  %20 = icmp ne i32 %19, 22
  br i1 %20, label %30, label %21

21:                                               ; preds = %16
  %22 = load ptr, ptr %5, align 8, !tbaa !3
  %23 = getelementptr inbounds nuw %struct.mbedtls_ssl_context, ptr %22, i32 0, i32 31
  %24 = load ptr, ptr %23, align 8, !tbaa !24
  %25 = getelementptr inbounds i8, ptr %24, i64 0
  %26 = load i8, ptr %25, align 1, !tbaa !25
  %27 = zext i8 %26 to i32
  %28 = load i32, ptr %6, align 4, !tbaa !8
  %29 = icmp ne i32 %27, %28
  br i1 %29, label %30, label %33

30:                                               ; preds = %21, %16
  %31 = load ptr, ptr %5, align 8, !tbaa !3
  call void (ptr, i32, ptr, i32, ptr, ...) @mbedtls_debug_print_msg(ptr noundef %31, i32 noundef 1, ptr noundef @.str, i32 noundef 71, ptr noundef @.str.3)
  %32 = load ptr, ptr %5, align 8, !tbaa !3
  call void @mbedtls_ssl_pend_fatal_alert(ptr noundef %32, i8 noundef zeroext 10, i32 noundef -30464)
  store i32 -30464, ptr %9, align 4, !tbaa !8
  br label %44

33:                                               ; preds = %21
  %34 = load ptr, ptr %5, align 8, !tbaa !3
  %35 = getelementptr inbounds nuw %struct.mbedtls_ssl_context, ptr %34, i32 0, i32 31
  %36 = load ptr, ptr %35, align 8, !tbaa !24
  %37 = getelementptr inbounds i8, ptr %36, i64 4
  %38 = load ptr, ptr %7, align 8, !tbaa !10
  store ptr %37, ptr %38, align 8, !tbaa !26
  %39 = load ptr, ptr %5, align 8, !tbaa !3
  %40 = getelementptr inbounds nuw %struct.mbedtls_ssl_context, ptr %39, i32 0, i32 40
  %41 = load i64, ptr %40, align 8, !tbaa !27
  %42 = sub i64 %41, 4
  %43 = load ptr, ptr %8, align 8, !tbaa !13
  store i64 %42, ptr %43, align 8, !tbaa !28
  br label %44

44:                                               ; preds = %33, %30, %13
  %45 = load i32, ptr %9, align 4, !tbaa !8
  call void @llvm.lifetime.end.p0(i64 4, ptr %9) #10
  ret i32 %45
}