; Function Attrs: nounwind uwtable
define hidden i32 @mbedtls_ssl_tls13_fetch_handshake_msg(ptr noundef %0, i32 noundef %1, ptr noundef writeonly captures(none) %2, ptr noundef writeonly captures(none) %3) local_unnamed_addr #0 {
  %5 = tail call i32 @mbedtls_ssl_read_record(ptr noundef %0, i32 noundef 0) #8
  %.not = icmp eq i32 %5, 0
  br i1 %.not, label %7, label %6

6:                                                ; preds = %4
  tail call void @mbedtls_debug_print_ret(ptr noundef %0, i32 noundef 1, ptr noundef nonnull @.str, i32 noundef 65, ptr noundef nonnull @.str.2, i32 noundef %5) #8
  br label %21

7:                                                ; preds = %4
  %8 = getelementptr inbounds nuw i8, ptr %0, i64 248
  %9 = load i32, ptr %8, align 8, !tbaa !3
  %.not13 = icmp eq i32 %9, 22
  br i1 %.not13, label %10, label %15

10:                                               ; preds = %7
  %11 = getelementptr inbounds nuw i8, ptr %0, i64 232
  %12 = load ptr, ptr %11, align 8, !tbaa !16
  %13 = load i8, ptr %12, align 1, !tbaa !17
  %14 = zext i8 %13 to i32
  %.not14 = icmp eq i32 %1, %14
  br i1 %.not14, label %16, label %15

15:                                               ; preds = %10, %7
  tail call void (ptr, i32, ptr, i32, ptr, ...) @mbedtls_debug_print_msg(ptr noundef nonnull %0, i32 noundef 1, ptr noundef nonnull @.str, i32 noundef 71, ptr noundef nonnull @.str.3) #8
  tail call void @mbedtls_ssl_pend_fatal_alert(ptr noundef nonnull %0, i8 noundef zeroext 10, i32 noundef -30464) #8
  br label %21

16:                                               ; preds = %10
  %17 = getelementptr inbounds nuw i8, ptr %12, i64 4
  store ptr %17, ptr %2, align 8, !tbaa !18
  %18 = getelementptr inbounds nuw i8, ptr %0, i64 304
  %19 = load i64, ptr %18, align 8, !tbaa !19
  %20 = add i64 %19, -4
  store i64 %20, ptr %3, align 8, !tbaa !20
  br label %21

21:                                               ; preds = %16, %15, %6
  %.0 = phi i32 [ %5, %6 ], [ -30464, %15 ], [ 0, %16 ]
  ret i32 %.0
}